target datalayout = "e-m:e-p270:32:32-p271:32:32-p272:64:64-i64:64-i128:128-f80:128-n8:16:32:64-S128"
target triple = "x86_64-unknown-linux-gnu"

%"class.std::__cxx11::basic_string" = type { %"struct.std::__cxx11::basic_string<char>::_Alloc_hider", i64, %union.anon }
%"struct.std::__cxx11::basic_string<char>::_Alloc_hider" = type { ptr }
%union.anon = type { i64, [8 x i8] }
%"class.google::protobuf::io::(anonymous namespace)::CommentCollector" = type { ptr, ptr, ptr, %"class.std::__cxx11::basic_string", i32, i8, i8, i8, i8 }

; Function Attrs: mustprogress nounwind uwtable
define internal void @_ZN6google8protobuf2io12_GLOBAL__N_116CommentCollectorD2Ev(ptr noundef nonnull align 8 dereferenceable(64) %this) unnamed_addr #4 align 2 {
entry:
  %this.addr = alloca ptr, align 8
  store ptr %this, ptr %this.addr, align 8
  %this1 = load ptr, ptr %this.addr, align 8
  %next_leading_comments_ = getelementptr inbounds %"class.google::protobuf::io::(anonymous namespace)::CommentCollector", ptr %this1, i32 0, i32 2
  %0 = load ptr, ptr %next_leading_comments_, align 8
  %cmp = icmp ne ptr %0, null
  br i1 %cmp, label %land.lhs.true, label %if.end

land.lhs.true:                                    ; preds = %entry
  %has_comment_ = getelementptr inbounds %"class.google::protobuf::io::(anonymous namespace)::CommentCollector", ptr %this1, i32 0, i32 6
  %1 = load i8, ptr %has_comment_, align 1
  %tobool = trunc i8 %1 to i1
  br i1 %tobool, label %if.then, label %if.end

if.then:                                          ; preds = %land.lhs.true
  %comment_buffer_ = getelementptr inbounds %"class.google::protobuf::io::(anonymous namespace)::CommentCollector", ptr %this1, i32 0, i32 3
  %next_leading_comments_2 = getelementptr inbounds %"class.google::protobuf::io::(anonymous namespace)::CommentCollector", ptr %this1, i32 0, i32 2
  %2 = load ptr, ptr %next_leading_comments_2, align 8
  call void @_ZNSt7__cxx1112basic_stringIcSt11char_traitsIcESaIcEE4swapERS4_(ptr noundef nonnull align 8 dereferenceable(32) %comment_buffer_, ptr noundef nonnull align 8 dereferenceable(32) %2) #3
  br label %if.end

if.end:                                           ; preds = %if.then, %land.lhs.true, %entry
  %comment_buffer_3 = getelementptr inbounds %"class.google::protobuf::io::(anonymous namespace)::CommentCollector", ptr %this1, i32 0, i32 3
  call void @_ZNSt7__cxx1112basic_stringIcSt11char_traitsIcESaIcEED1Ev(ptr noundef nonnull align 8 dereferenceable(32) %comment_buffer_3) #3
  ret void
}