; Function Attrs: mustprogress nounwind uwtable
define internal fastcc void @_ZN6google8protobuf2io12_GLOBAL__N_116CommentCollectorD2Ev(ptr noundef nonnull align 8 dereferenceable(64) %this) unnamed_addr #7 align 2 {
entry:
  %next_leading_comments_ = getelementptr inbounds nuw i8, ptr %this, i64 16
  %0 = load ptr, ptr %next_leading_comments_, align 8
  %cmp.not = icmp eq ptr %0, null
  br i1 %cmp.not, label %if.end, label %land.lhs.true

land.lhs.true:                                    ; preds = %entry
  %has_comment_ = getelementptr inbounds nuw i8, ptr %this, i64 61
  %1 = load i8, ptr %has_comment_, align 1
  %tobool = trunc i8 %1 to i1
  br i1 %tobool, label %if.then, label %if.end

if.then:                                          ; preds = %land.lhs.true
  %comment_buffer_ = getelementptr inbounds nuw i8, ptr %this, i64 24
  tail call void @_ZNSt7__cxx1112basic_stringIcSt11char_traitsIcESaIcEE4swapERS4_(ptr noundef nonnull align 8 dereferenceable(32) %comment_buffer_, ptr noundef nonnull align 8 dereferenceable(32) %0) #23
  br label %if.end

if.end:                                           ; preds = %if.then, %land.lhs.true, %entry
  %comment_buffer_3 = getelementptr inbounds nuw i8, ptr %this, i64 24
  tail call void @_ZNSt7__cxx1112basic_stringIcSt11char_traitsIcESaIcEED1Ev(ptr noundef nonnull align 8 dereferenceable(32) %comment_buffer_3) #23
  ret void
}